target datalayout = "e-m:e-p270:32:32-p271:32:32-p272:64:64-i64:64-i128:128-f80:128-n8:16:32:64-S128"
target triple = "x86_64-pc-linux-gnu"

%struct.SurfaceDataRasInfo = type { %struct.SurfaceDataBounds, ptr, i32, i32, i32, i32, ptr, ptr, ptr, ptr, ptr, ptr, i32, %union.anon.0 }
%struct.SurfaceDataBounds = type { i32, i32, i32, i32 }
%union.anon.0 = type { ptr, [56 x i8] }
%struct.SpanIteratorFuncs = type { ptr, ptr, ptr, ptr, ptr, ptr }

; Function Attrs: nounwind uwtable
define hidden void @AnyByteSetSpans(ptr noundef %0, ptr noundef %1, ptr noundef %2, i32 noundef %3, ptr noundef %4, ptr noundef %5) #0 {
  %7 = alloca ptr, align 8
  %8 = alloca ptr, align 8
  %9 = alloca ptr, align 8
  %10 = alloca i32, align 4
  %11 = alloca ptr, align 8
  %12 = alloca ptr, align 8
  %13 = alloca ptr, align 8
  %14 = alloca i32, align 4
  %15 = alloca [4 x i32], align 16
  %16 = alloca i32, align 4
  %17 = alloca i32, align 4
  %18 = alloca i32, align 4
  %19 = alloca i32, align 4
  %20 = alloca ptr, align 8
  %21 = alloca i32, align 4
  store ptr %0, ptr %7, align 8
  store ptr %1, ptr %8, align 8
  store ptr %2, ptr %9, align 8
  store i32 %3, ptr %10, align 4
  store ptr %4, ptr %11, align 8
  store ptr %5, ptr %12, align 8
  %22 = load ptr, ptr %7, align 8
  %23 = getelementptr inbounds %struct.SurfaceDataRasInfo, ptr %22, i32 0, i32 1
  %24 = load ptr, ptr %23, align 8
  store ptr %24, ptr %13, align 8
  %25 = load ptr, ptr %7, align 8
  %26 = getelementptr inbounds %struct.SurfaceDataRasInfo, ptr %25, i32 0, i32 4
  %27 = load i32, ptr %26, align 8
  store i32 %27, ptr %14, align 4
  br label %28

28:                                               ; preds = %88, %6
  %29 = load ptr, ptr %8, align 8
  %30 = getelementptr inbounds %struct.SpanIteratorFuncs, ptr %29, i32 0, i32 4
  %31 = load ptr, ptr %30, align 8
  %32 = load ptr, ptr %9, align 8
  %33 = getelementptr inbounds [4 x i32], ptr %15, i64 0, i64 0
  %34 = call zeroext i8 %31(ptr noundef %32, ptr noundef %33)
  %35 = icmp ne i8 %34, 0
  br i1 %35, label %36, label %89

36:                                               ; preds = %28
  %37 = getelementptr inbounds [4 x i32], ptr %15, i64 0, i64 0
  %38 = load i32, ptr %37, align 16
  store i32 %38, ptr %16, align 4
  %39 = getelementptr inbounds [4 x i32], ptr %15, i64 0, i64 1
  %40 = load i32, ptr %39, align 4
  store i32 %40, ptr %17, align 4
  %41 = getelementptr inbounds [4 x i32], ptr %15, i64 0, i64 2
  %42 = load i32, ptr %41, align 8
  %43 = load i32, ptr %16, align 4
  %44 = sub nsw i32 %42, %43
  store i32 %44, ptr %18, align 4
  %45 = getelementptr inbounds [4 x i32], ptr %15, i64 0, i64 3
  %46 = load i32, ptr %45, align 4
  %47 = load i32, ptr %17, align 4
  %48 = sub nsw i32 %46, %47
  store i32 %48, ptr %19, align 4
  %49 = load ptr, ptr %13, align 8
  %50 = ptrtoint ptr %49 to i64
  %51 = load i32, ptr %17, align 4
  %52 = sext i32 %51 to i64
  %53 = load i32, ptr %14, align 4
  %54 = sext i32 %53 to i64
  %55 = mul nsw i64 %52, %54
  %56 = load i32, ptr %16, align 4
  %57 = sext i32 %56 to i64
  %58 = mul nsw i64 %57, 1
  %59 = add nsw i64 %55, %58
  %60 = add nsw i64 %50, %59
  %61 = inttoptr i64 %60 to ptr
  store ptr %61, ptr %20, align 8
  br label %62

62:                                               ; preds = %84, %36
  store i32 0, ptr %21, align 4
  br label %63

63:                                               ; preds = %74, %62
  %64 = load i32, ptr %21, align 4
  %65 = load i32, ptr %18, align 4
  %66 = icmp ult i32 %64, %65
  br i1 %66, label %67, label %77

67:                                               ; preds = %63
  %68 = load i32, ptr %10, align 4
  %69 = trunc i32 %68 to i8
  %70 = load ptr, ptr %20, align 8
  %71 = load i32, ptr %21, align 4
  %72 = zext i32 %71 to i64
  %73 = getelementptr inbounds i8, ptr %70, i64 %72
  store i8 %69, ptr %73, align 1
  br label %74

74:                                               ; preds = %67
  %75 = load i32, ptr %21, align 4
  %76 = add i32 %75, 1
  store i32 %76, ptr %21, align 4
  br label %63, !llvm.loop !9

77:                                               ; preds = %63
  %78 = load ptr, ptr %20, align 8
  %79 = ptrtoint ptr %78 to i64
  %80 = load i32, ptr %14, align 4
  %81 = sext i32 %80 to i64
  %82 = add nsw i64 %79, %81
  %83 = inttoptr i64 %82 to ptr
  store ptr %83, ptr %20, align 8
  br label %84

84:                                               ; preds = %77
  %85 = load i32, ptr %19, align 4
  %86 = add i32 %85, -1
  store i32 %86, ptr %19, align 4
  %87 = icmp ugt i32 %86, 0
  br i1 %87, label %62, label %88, !llvm.loop !10

88:                                               ; preds = %84
  br label %28, !llvm.loop !11

89:                                               ; preds = %28
  ret void
}