; Function Attrs: nounwind uwtable
define hidden void @AnyByteSetSpans(ptr nocapture noundef readonly %0, ptr nocapture noundef readonly %1, ptr noundef %2, i32 noundef %3, ptr nocapture readnone %4, ptr nocapture readnone %5) #1 {
  %7 = alloca [4 x i32], align 16
  %8 = getelementptr inbounds i8, ptr %0, i64 16
  %9 = load ptr, ptr %8, align 8
  %10 = getelementptr inbounds i8, ptr %0, i64 32
  %11 = load i32, ptr %10, align 8
  %12 = getelementptr inbounds i8, ptr %1, i64 32
  %13 = load ptr, ptr %12, align 8
  %14 = call zeroext i8 %13(ptr noundef %2, ptr noundef nonnull %7) #7
  %.not25 = icmp eq i8 %14, 0
  br i1 %.not25, label %._crit_edge, label %.lr.ph

.lr.ph:                                           ; preds = %6
  %15 = getelementptr inbounds i8, ptr %7, i64 4
  %16 = getelementptr inbounds i8, ptr %7, i64 8
  %17 = getelementptr inbounds i8, ptr %7, i64 12
  %18 = ptrtoint ptr %9 to i64
  %19 = sext i32 %11 to i64
  %20 = trunc i32 %3 to i8
  br label %21

21:                                               ; preds = %.lr.ph, %.split24.us
  %22 = load i32, ptr %7, align 16
  %23 = load i32, ptr %16, align 8
  %.not26 = icmp eq i32 %23, %22
  br i1 %.not26, label %.split24.us, label %.lr.ph.us.preheader

.lr.ph.us.preheader:                              ; preds = %21
  %24 = sext i32 %22 to i64
  %25 = add i64 %24, %18
  %26 = load i32, ptr %15, align 4
  %27 = sext i32 %26 to i64
  %28 = mul nsw i64 %27, %19
  %29 = add i64 %25, %28
  %30 = load i32, ptr %17, align 4
  %31 = sub nsw i32 %30, %26
  %32 = xor i32 %22, -1
  %33 = add i32 %23, %32
  %34 = zext i32 %33 to i64
  %35 = add nuw nsw i64 %34, 1
  br label %.lr.ph.us

.lr.ph.us:                                        ; preds = %.lr.ph.us.preheader, %.lr.ph.us
  %.019.us = phi i32 [ %37, %.lr.ph.us ], [ %31, %.lr.ph.us.preheader ]
  %.018.in.us = phi i64 [ %36, %.lr.ph.us ], [ %29, %.lr.ph.us.preheader ]
  %.018.us = inttoptr i64 %.018.in.us to ptr
  call void @llvm.memset.p0.i64(ptr noundef nonnull align 1 dereferenceable(1) %.018.us, i8 %20, i64 %35, i1 false)
  %36 = add nsw i64 %.018.in.us, %19
  %37 = add i32 %.019.us, -1
  %.not21.us = icmp eq i32 %37, 0
  br i1 %.not21.us, label %.split24.us, label %.lr.ph.us, !llvm.loop !8

.split24.us:                                      ; preds = %.lr.ph.us, %21
  %38 = load ptr, ptr %12, align 8
  %39 = call zeroext i8 %38(ptr noundef %2, ptr noundef nonnull %7) #7
  %.not = icmp eq i8 %39, 0
  br i1 %.not, label %._crit_edge, label %21, !llvm.loop !9

._crit_edge:                                      ; preds = %.split24.us, %6
  ret void
}